target datalayout = "e-m:e-p270:32:32-p271:32:32-p272:64:64-i64:64-i128:128-f80:128-n8:16:32:64-S128"
target triple = "x86_64-pc-linux-gnu"

; Function Attrs: nounwind uwtable
define hidden zeroext i1 @je_ehooks_default_dalloc_impl(ptr noundef %0, i64 noundef %1) #0 {
  %3 = alloca i1, align 1
  %4 = alloca ptr, align 8
  %5 = alloca i64, align 8
  store ptr %0, ptr %4, align 8, !tbaa !18
  store i64 %1, ptr %5, align 8, !tbaa !19
  %6 = load ptr, ptr %4, align 8, !tbaa !18
  %7 = call zeroext i1 @je_extent_in_dss(ptr noundef %6)
  br i1 %7, label %12, label %8

8:                                                ; preds = %2
  %9 = load ptr, ptr %4, align 8, !tbaa !18
  %10 = load i64, ptr %5, align 8, !tbaa !19
  %11 = call zeroext i1 @je_extent_dalloc_mmap(ptr noundef %9, i64 noundef %10)
  store i1 %11, ptr %3, align 1
  br label %13

12:                                               ; preds = %2
  store i1 true, ptr %3, align 1
  br label %13

13:                                               ; preds = %12, %8
  %14 = load i1, ptr %3, align 1
  ret i1 %14
}